; Function Attrs: mustprogress nofree norecurse nosync nounwind willreturn memory(argmem: readwrite) uwtable
define internal range(i32 0, 23) i32 @thread_allocated_ctl(ptr noundef readonly captures(none) %0, ptr readnone captures(none) %1, i64 %2, ptr noundef writeonly captures(address_is_null) %3, ptr noundef captures(address_is_null) %4, ptr noundef readnone captures(address_is_null) %5, i64 noundef %6) #10 {
  %8 = alloca i64, align 8
  call void @llvm.lifetime.start.p0(i64 8, ptr nonnull %8)
  %9 = icmp ne ptr %5, null
  %10 = icmp ne i64 %6, 0
  %or.cond = or i1 %9, %10
  br i1 %or.cond, label %20, label %11

11:                                               ; preds = %7
  %12 = getelementptr inbounds nuw i8, ptr %0, i64 896
  %13 = load i64, ptr %12, align 8, !tbaa !4
  store i64 %13, ptr %8, align 8, !tbaa !4
  %14 = icmp ne ptr %3, null
  %15 = icmp ne ptr %4, null
  %or.cond3 = and i1 %14, %15
  br i1 %or.cond3, label %16, label %20

16:                                               ; preds = %11
  %17 = load i64, ptr %4, align 8, !tbaa !4
  %.not = icmp eq i64 %17, 8
  br i1 %.not, label %19, label %18

18:                                               ; preds = %16
  %spec.select = tail call i64 @llvm.umin.i64(i64 %17, i64 8)
  call void @llvm.memcpy.p0.p0.i64(ptr nonnull align 1 %3, ptr nonnull align 8 %8, i64 %spec.select, i1 false)
  store i64 %spec.select, ptr %4, align 8, !tbaa !4
  br label %20

19:                                               ; preds = %16
  store i64 %13, ptr %3, align 8, !tbaa !4
  br label %20

20:                                               ; preds = %18, %7, %19, %11
  %.019 = phi i32 [ 22, %18 ], [ 1, %7 ], [ 0, %19 ], [ 0, %11 ]
  call void @llvm.lifetime.end.p0(i64 8, ptr nonnull %8)
  ret i32 %.019
}